Certificate:
    Data:
        Version: 3 (0x2)
        Serial Number:
            cc:4d:40:fd:02:a8:b3:71:b8:b8:ca:7a:a7:aa:87:40
    Signature Algorithm: sha512WithRSAEncryption
        Issuer: CN=Easy-RSA CA
        Validity
            Not Before: Dec 22 08:14:28 2020 GMT
            Not After : Dec 20 08:14:28 2030 GMT
        Subject: CN=client-01
        Subject Public Key Info:
            Public Key Algorithm: rsaEncryption
                Public-Key: (4096 bit)
                Modulus:
                    00:d7:d6:d4:20:75:58:50:cd:e8:1c:bf:b4:09:4d:
                    f7:e0:a1:71:f8:82:ba:65:50:32:1a:c2:69:86:e8:
                    02:3e:50:ba:d7:21:99:68:29:c9:5a:92:0f:40:0b:
                    e2:19:6f:71:c1:0c:ae:e0:a0:ed:85:44:83:d2:39:
                    82:6f:8d:2a:31:ae:ee:e4:df:10:77:85:b7:f3:9b:
                    4b:06:5e:28:1e:8f:7c:cd:ec:ef:c7:82:2d:82:b3:
                    2a:46:e2:99:cb:3f:fe:2c:09:51:4b:00:54:7c:d8:
                    8b:18:4e:3d:67:6f:97:5c:8f:0c:a8:c0:f7:bb:0a:
                    f5:59:92:5a:df:c4:fa:83:82:af:70:64:3a:2d:6a:
                    a8:72:8f:e3:67:5e:8b:b9:ce:74:58:c0:3b:c2:f1:
                    f8:a0:b4:83:07:c9:66:00:a0:88:ce:18:42:90:9a:
                    f3:5e:b3:ed:39:af:57:ef:19:d1:d5:7f:9b:87:41:
                    55:0d:99:b4:05:02:71:a6:70:f9:55:8f:de:92:82:
                    46:01:39:d8:03:08:f8:82:1f:20:b1:83:7e:83:f4:
                    bd:1e:b9:c7:29:75:dc:7e:b7:1a:d4:27:3f:b9:8e:
                    58:b5:1d:c1:0c:e6:4c:7c:85:1a:44:a8:b3:4c:1c:
                    6d:92:f2:9c:92:db:fd:2d:4a:20:17:45:62:e1:ee:
                    04:7c:5f:99:8d:2b:e7:d0:2e:e1:85:59:a0:f8:3e:
                    9f:d5:16:9d:74:e6:54:83:5b:8d:d1:09:2d:c6:73:
                    63:8d:10:bd:b6:40:51:f5:54:ae:50:5e:46:d2:d5:
                    d4:8b:b4:2b:cb:98:dd:66:a9:52:7f:b1:69:01:be:
                    61:71:c9:64:6c:4c:87:e6:44:3d:0c:a4:c3:c3:b3:
                    c9:a6:ac:64:cc:0a:a1:6b:ed:a6:fd:39:35:41:68:
                    b6:a6:75:e9:8a:d2:79:bc:8f:61:05:bb:51:b8:fd:
                    59:4f:4c:d3:bc:1e:e4:50:03:85:f0:73:ba:b7:c4:
                    ef:b7:3d:e0:00:87:0f:3e:e3:05:4b:c3:80:4d:63:
                    ba:df:bb:aa:fd:ac:5f:50:8f:4d:37:f9:f0:52:27:
                    a0:64:40:8d:76:7e:d0:c2:d3:2e:dd:b2:4a:4e:da:
                    78:8c:12:a4:3d:34:c9:55:b5:8d:3e:2e:34:d3:af:
                    a4:40:4c:03:49:a5:6d:b0:42:dc:af:f1:b3:f0:38:
                    4b:76:43:12:cb:ea:f5:75:64:ef:f1:dc:4c:ee:73:
                    37:2c:fb:55:2d:98:f1:c2:bf:51:39:77:e1:69:35:
                    53:ee:44:07:6b:cc:92:be:9e:71:22:66:69:f7:c6:
                    1a:f7:dd:24:9c:ec:5f:d2:8e:a4:ae:82:ad:6a:f2:
                    de:7c:ff
                Exponent: 65537 (0x10001)
        X509v3 extensions:
            X509v3 Basic Constraints: 
                CA:FALSE
            X509v3 Subject Key Identifier: 
                AA:E6:F6:CC:BD:67:33:A1:40:1E:98:09:66:38:AD:43:7F:D8:D6:92
            X509v3 Authority Key Identifier: 
                keyid:03:EC:33:03:EB:61:3D:A7:E9:03:B1:7F:79:19:DB:6F:C5:EF:58:57
                DirName:/CN=Easy-RSA CA
                serial:BF:25:A6:03:43:E3:7D:63

            X509v3 Extended Key Usage: 
                TLS Web Client Authentication
            X509v3 Key Usage: 
                Digital Signature
    Signature Algorithm: sha512WithRSAEncryption
         81:1e:df:81:43:60:8f:fa:bf:6a:db:d8:88:fc:dc:9e:74:8f:
         12:61:a5:10:93:22:a6:d4:a3:56:97:dc:2e:d3:cf:05:81:98:
         37:bb:87:34:ef:5d:8c:c4:fb:50:43:33:47:20:08:e3:93:ef:
         9d:63:9d:3a:79:1c:41:01:8d:e1:2f:ba:9c:1b:74:57:36:3c:
         dd:c0:bd:7c:c5:90:7b:41:1c:55:b6:2f:ed:02:93:e6:1d:7a:
         30:87:43:d6:99:ab:a6:71:97:88:c3:4f:c8:58:48:a3:45:4d:
         e5:a5:79:3a:77:0c:34:1f:1c:74:b4:41:7f:4f:2d:9d:66:36:
         32:84:de:94:e1:42:a5:54:d2:f7:d9:d0:2d:42:d1:05:b7:3e:
         75:6c:80:d1:7c:4e:dc:41:c2:4a:59:22:1b:17:ea:2b:d2:c8:
         c7:17:ee:d0:58:b9:18:e4:ff:07:43:63:2b:93:da:27:81:c1:
         db:1d:94:a8:72:4c:8b:d0:b4:c3:f7:cc:68:f4:f2:9e:2a:b2:
         6a:d7:7b:c4:93:7e:69:03:bc:18:0b:e5:b2:22:50:e6:9a:46:
         d2:2f:31:49:4f:6a:e8:98:d4:f3:89:a3:e6:03:86:ea:67:fd:
         1a:14:75:72:18:ad:b9:7f:b6:fb:ae:38:bc:1e:04:b0:f5:1f:
         6b:f1:a5:b4:a8:af:4c:51:a9:f0:6b:24:7c:7f:f3:58:02:d6:
         bf:21:61:7c:9c:44:63:30:1b:c7:b1:03:9c:67:3b:88:70:89:
         5b:26:93:e7:4f:8e:93:89:a6:55:0d:63:20:78:b4:b7:a7:fe:
         ad:4e:9c:d6:c9:72:ae:b0:3c:31:52:c6:42:b2:ac:09:2b:d0:
         97:8b:66:dd:33:bc:90:3b:2b:07:27:65:ff:51:04:8f:b4:40:
         31:ce:26:0a:42:2b:30:19:1e:a9:4e:7b:9b:9e:dd:98:83:1d:
         18:29:75:1d:55:cc:86:87:14:3d:6d:6b:20:d8:59:d4:99:f4:
         0f:7a:93:37:0f:c8:85:30:5d:98:29:f9:a0:d5:05:ba:6a:e5:
         f4:32:ae:3a:1b:b7:e0:3d:2b:02:7c:b4:1e:f6:eb:c1:24:fd:
         5e:7f:5e:ec:b7:4e:4f:14:50:65:16:8d:01:bf:ae:6f:f8:18:
         61:ad:cd:20:67:c5:8c:a8:5a:12:a9:37:a6:68:3d:7e:d7:87:
         bf:ce:b5:89:05:27:41:b6:ef:98:60:de:82:2a:3c:ec:22:a7:
         67:06:43:d1:07:cb:37:76:2e:05:17:ef:4e:3e:b3:2d:48:3c:
         37:8d:64:58:35:e9:33:55:c9:ec:59:fd:b5:b0:1f:54:5c:43:
         02:7b:2b:6f:b4:8f:7c:9a
-----BEGIN CERTIFICATE-----
MIIFTTCCAzWgAwIBAgIRAMxNQP0CqLNxuLjKeqeqh0AwDQYJKoZIhvcNAQENBQAw
FjEUMBIGA1UEAwwLRWFzeS1SU0EgQ0EwHhcNMjAxMjIyMDgxNDI4WhcNMzAxMjIw
MDgxNDI4WjAUMRIwEAYDVQQDDAljbGllbnQtMDEwggIiMA0GCSqGSIb3DQEBAQUA
A4ICDwAwggIKAoICAQDX1tQgdVhQzegcv7QJTffgoXH4grplUDIawmmG6AI+ULrX
IZloKclakg9AC+IZb3HBDK7goO2FRIPSOYJvjSoxru7k3xB3hbfzm0sGXigej3zN
7O/Hgi2CsypG4pnLP/4sCVFLAFR82IsYTj1nb5dcjwyowPe7CvVZklrfxPqDgq9w
ZDotaqhyj+NnXou5znRYwDvC8figtIMHyWYAoIjOGEKQmvNes+05r1fvGdHVf5uH
QVUNmbQFAnGmcPlVj96SgkYBOdgDCPiCHyCxg36D9L0euccpddx+txrUJz+5jli1
HcEM5kx8hRpEqLNMHG2S8pyS2/0tSiAXRWLh7gR8X5mNK+fQLuGFWaD4Pp/VFp10
5lSDW43RCS3Gc2ONEL22QFH1VK5QXkbS1dSLtCvLmN1mqVJ/sWkBvmFxyWRsTIfm
RD0MpMPDs8mmrGTMCqFr7ab9OTVBaLamdemK0nm8j2EFu1G4/VlPTNO8HuRQA4Xw
c7q3xO+3PeAAhw8+4wVLw4BNY7rfu6r9rF9Qj003+fBSJ6BkQI12ftDC0y7dskpO
2niMEqQ9NMlVtY0+LjTTr6RATANJpW2wQtyv8bPwOEt2QxLL6vV1ZO/x3Ezuczcs
+1UtmPHCv1E5d+FpNVPuRAdrzJK+nnEiZmn3xhr33SSc7F/SjqSugq1q8t58/wID
AQABo4GXMIGUMAkGA1UdEwQCMAAwHQYDVR0OBBYEFKrm9sy9ZzOhQB6YCWY4rUN/
2NaSMEYGA1UdIwQ/MD2AFAPsMwPrYT2n6QOxf3kZ22/F71hXoRqkGDAWMRQwEgYD
VQQDDAtFYXN5LVJTQSBDQYIJAL8lpgND431jMBMGA1UdJQQMMAoGCCsGAQUFBwMC
MAsGA1UdDwQEAwIHgDANBgkqhkiG9w0BAQ0FAAOCAgEAgR7fgUNgj/q/atvYiPzc
nnSPEmGlEJMiptSjVpfcLtPPBYGYN7uHNO9djMT7UEMzRyAI45PvnWOdOnkcQQGN
4S+6nBt0VzY83cC9fMWQe0EcVbYv7QKT5h16MIdD1pmrpnGXiMNPyFhIo0VN5aV5
OncMNB8cdLRBf08tnWY2MoTelOFCpVTS99nQLULRBbc+dWyA0XxO3EHCSlkiGxfq
K9LIxxfu0Fi5GOT/B0NjK5PaJ4HB2x2UqHJMi9C0w/fMaPTyniqyatd7xJN+aQO8
GAvlsiJQ5ppG0i8xSU9q6JjU84mj5gOG6mf9GhR1chituX+2+644vB4EsPUfa/Gl
tKivTFGp8GskfH/zWALWvyFhfJxEYzAbx7EDnGc7iHCJWyaT50+Ok4mmVQ1jIHi0
t6f+rU6c1slyrrA8MVLGQrKsCSvQl4tm3TO8kDsrBydl/1EEj7RAMc4mCkIrMBke
qU57m57dmIMdGCl1HVXMhocUPW1rINhZ1Jn0D3qTNw/IhTBdmCn5oNUFumrl9DKu
Ohu34D0rAny0HvbrwST9Xn9e7LdOTxRQZRaNAb+ub/gYYa3NIGfFjKhaEqk3pmg9
fteHv861iQUnQbbvmGDegio87CKnZwZD0QfLN3YuBRfvTj6zLUg8N41kWDXpM1XJ
7Fn9tbAfVFxDAnsrb7SPfJo=
-----END CERTIFICATE-----
