Certificate:
    Data:
        Version: 3 (0x2)
        Serial Number:
            24:90:f4:b9:34:e6:ce:fc:eb:f5:7b:2d:08:b6:41:27
    Signature Algorithm: sha512WithRSAEncryption
        Issuer: CN=Easy-RSA CA
        Validity
            Not Before: Dec 22 08:12:35 2020 GMT
            Not After : Dec 20 08:12:35 2030 GMT
        Subject: CN=srv-openvpn
        Subject Public Key Info:
            Public Key Algorithm: rsaEncryption
                Public-Key: (4096 bit)
                Modulus:
                    00:d6:fc:a2:c4:f9:1c:51:0d:17:b5:1b:0c:f3:73:
                    25:29:8d:ca:06:41:74:a9:b1:aa:71:3a:15:2e:5b:
                    80:5e:65:25:62:be:f9:b0:ee:07:2f:e6:c9:ee:0f:
                    ff:42:d2:69:e1:38:46:66:2c:d0:93:74:c5:56:ec:
                    57:41:5f:7d:b8:7c:a8:ba:92:53:16:d8:c5:cd:8e:
                    52:ad:4e:06:73:50:4c:5b:f7:a2:9f:88:ae:d4:4c:
                    5c:e9:5a:b8:6f:1a:6f:1c:e9:22:18:40:26:a4:04:
                    d1:70:73:7c:c8:7b:9f:a1:15:5a:63:8f:ac:52:0b:
                    8f:94:5d:a7:4c:22:69:70:2f:91:db:3a:64:df:0b:
                    1b:92:e8:f1:b0:c8:98:5f:39:6d:9d:c4:bd:76:93:
                    3f:36:20:2e:0b:8d:38:cd:45:34:00:aa:72:0f:cf:
                    8b:28:69:70:1b:fd:4b:f2:e5:16:23:cb:68:3e:60:
                    57:3a:24:97:1e:9b:b4:70:55:5f:63:79:6b:2f:29:
                    73:2c:aa:62:95:ca:60:4c:6c:f1:0d:32:fd:59:c5:
                    ff:ac:79:91:17:14:5c:cd:68:ae:69:ad:bd:0e:bc:
                    26:e9:7d:e5:5c:c4:c4:ab:2f:1f:b8:0d:65:a1:cc:
                    26:1c:c8:2b:c9:de:c1:43:9e:2e:32:95:d5:e0:98:
                    48:74:83:73:92:b2:f6:90:ec:fc:90:d0:51:c9:41:
                    8e:07:2a:08:43:3b:f8:71:00:56:f3:ad:85:7e:a4:
                    2f:e5:d9:98:21:da:79:dc:78:40:aa:fd:79:5b:11:
                    d3:a7:35:2d:96:e6:9e:18:26:00:07:a6:4c:a0:88:
                    a3:72:3c:87:3d:fd:84:f2:1c:0a:b0:2c:c3:d9:46:
                    cf:1b:f5:ed:2f:38:06:7f:a3:11:70:85:17:1e:c7:
                    99:36:97:85:10:cb:bf:0d:67:7c:be:e4:8a:83:ee:
                    3d:07:62:0f:d5:79:62:74:4f:ae:17:60:20:fe:66:
                    40:75:0f:05:04:7d:33:b0:6e:40:87:10:24:b0:a9:
                    89:14:ba:f5:9b:54:9c:e0:f9:a9:0d:6f:50:00:b6:
                    23:d2:60:7a:05:20:f5:a5:26:31:1a:7e:35:eb:84:
                    c4:01:a4:d8:fd:d1:fa:a0:49:78:ff:d9:f9:ad:3a:
                    36:22:fe:01:19:1b:18:59:d5:c9:2a:15:7b:0c:e3:
                    ba:9f:0c:1e:ea:3f:8d:37:f3:1a:df:5a:c1:ae:f5:
                    c7:4f:84:54:ae:c2:e0:cf:05:c4:0b:99:10:4b:c6:
                    55:1e:83:ab:ed:9f:46:0f:72:a1:f6:36:5e:bc:79:
                    fb:d4:b7:c6:a8:6e:fb:a2:7c:ca:1d:7b:0a:e6:b6:
                    ef:90:4d
                Exponent: 65537 (0x10001)
        X509v3 extensions:
            X509v3 Basic Constraints: 
                CA:FALSE
            X509v3 Subject Key Identifier: 
                41:18:D5:8A:78:92:C6:03:B1:0E:03:67:36:60:01:B2:E1:50:12:66
            X509v3 Authority Key Identifier: 
                keyid:03:EC:33:03:EB:61:3D:A7:E9:03:B1:7F:79:19:DB:6F:C5:EF:58:57
                DirName:/CN=Easy-RSA CA
                serial:BF:25:A6:03:43:E3:7D:63

            X509v3 Extended Key Usage: 
                TLS Web Server Authentication
            X509v3 Key Usage: 
                Digital Signature, Key Encipherment
            X509v3 Subject Alternative Name: 
                DNS:srv-openvpn
    Signature Algorithm: sha512WithRSAEncryption
         47:f9:ab:05:f3:55:84:13:37:71:c8:ff:5b:10:b9:8f:6a:03:
         4a:40:22:c4:06:34:87:de:3f:3b:2c:ba:3d:0c:37:46:10:30:
         82:5a:48:21:32:ee:81:35:0c:0b:36:4f:66:e9:af:27:f1:f6:
         f0:0a:cc:e4:79:de:75:5b:81:f3:0c:af:f2:b6:83:43:e2:e1:
         66:5c:49:4e:f9:08:1c:ad:e4:d2:33:85:f3:24:09:0d:4f:28:
         40:67:39:a8:f1:3d:6e:d8:17:df:14:36:90:0b:ee:98:ea:bc:
         b1:cb:c3:b9:dd:08:36:2b:0a:cb:ec:05:69:53:94:ca:4c:6e:
         df:a1:94:30:e0:98:c5:c2:5f:8d:dc:0f:93:b8:46:51:b9:49:
         e8:74:37:1f:d4:7c:6d:87:a8:6c:ed:e6:9b:56:c1:2d:5f:84:
         c0:0a:b2:a8:f1:a9:14:ff:ec:50:e3:ed:9e:25:f1:42:20:e0:
         bc:2d:e1:68:57:27:46:16:dc:9c:64:f2:0f:97:c0:cf:e0:a7:
         a4:9d:48:26:b1:1b:58:15:81:52:13:b2:fc:c1:16:28:0c:9c:
         51:35:7c:3f:a5:16:22:49:d5:c9:96:d5:8a:36:88:7f:57:e2:
         84:69:d7:07:37:50:47:0a:79:e0:d0:76:5b:fd:c1:0c:66:c0:
         39:ad:54:43:a7:d1:d6:71:01:a0:41:42:2f:4f:34:68:48:3e:
         de:e6:d9:09:ba:12:b2:0a:91:d4:3f:bb:46:a7:70:cc:b3:c2:
         a9:bf:f0:bf:90:67:20:5e:6d:43:31:27:3a:a3:20:25:49:ab:
         94:9c:10:17:3c:ce:27:7c:6e:f8:e9:b2:e9:57:d9:81:e5:fc:
         89:13:9b:ba:4b:30:82:d9:f6:f3:9b:76:8d:cb:77:d8:c5:71:
         c4:27:33:73:36:66:a6:b5:bd:18:d4:25:e5:24:15:a5:7f:49:
         74:be:b7:ab:a2:14:a5:ad:cb:7b:c1:2c:18:34:d8:af:76:d9:
         39:48:9c:02:7e:53:e1:16:e7:5d:75:9e:1b:a3:fc:9b:07:e8:
         2e:6d:b3:60:89:17:b7:40:bc:39:e2:53:03:70:66:54:9b:fd:
         d8:a7:8c:d5:d3:71:3e:2d:19:14:77:49:ef:c7:a4:77:0c:bd:
         4f:35:d6:44:83:5f:3e:73:a9:71:a1:ce:8b:d4:6e:59:26:be:
         fb:47:29:50:36:69:28:40:a9:ed:a7:5b:05:11:19:21:61:89:
         84:51:e1:09:51:7f:5a:2e:73:84:2d:77:c3:37:07:6d:eb:81:
         be:0d:03:1b:cd:3a:ad:38:ef:26:36:e7:15:56:aa:83:f6:36:
         42:1d:c8:41:3d:45:20:1a
-----BEGIN CERTIFICATE-----
MIIFZjCCA06gAwIBAgIQJJD0uTTmzvzr9XstCLZBJzANBgkqhkiG9w0BAQ0FADAW
MRQwEgYDVQQDDAtFYXN5LVJTQSBDQTAeFw0yMDEyMjIwODEyMzVaFw0zMDEyMjAw
ODEyMzVaMBYxFDASBgNVBAMMC3Nydi1vcGVudnBuMIICIjANBgkqhkiG9w0BAQEF
AAOCAg8AMIICCgKCAgEA1vyixPkcUQ0XtRsM83MlKY3KBkF0qbGqcToVLluAXmUl
Yr75sO4HL+bJ7g//QtJp4ThGZizQk3TFVuxXQV99uHyoupJTFtjFzY5SrU4Gc1BM
W/ein4iu1Exc6Vq4bxpvHOkiGEAmpATRcHN8yHufoRVaY4+sUguPlF2nTCJpcC+R
2zpk3wsbkujxsMiYXzltncS9dpM/NiAuC404zUU0AKpyD8+LKGlwG/1L8uUWI8to
PmBXOiSXHpu0cFVfY3lrLylzLKpilcpgTGzxDTL9WcX/rHmRFxRczWiuaa29Drwm
6X3lXMTEqy8fuA1locwmHMgryd7BQ54uMpXV4JhIdINzkrL2kOz8kNBRyUGOByoI
Qzv4cQBW862FfqQv5dmYIdp53HhAqv15WxHTpzUtluaeGCYAB6ZMoIijcjyHPf2E
8hwKsCzD2UbPG/XtLzgGf6MRcIUXHseZNpeFEMu/DWd8vuSKg+49B2IP1XlidE+u
F2Ag/mZAdQ8FBH0zsG5AhxAksKmJFLr1m1Sc4PmpDW9QALYj0mB6BSD1pSYxGn41
64TEAaTY/dH6oEl4/9n5rTo2Iv4BGRsYWdXJKhV7DOO6nwwe6j+NN/Ma31rBrvXH
T4RUrsLgzwXEC5kQS8ZVHoOr7Z9GD3Kh9jZevHn71LfGqG77onzKHXsK5rbvkE0C
AwEAAaOBrzCBrDAJBgNVHRMEAjAAMB0GA1UdDgQWBBRBGNWKeJLGA7EOA2c2YAGy
4VASZjBGBgNVHSMEPzA9gBQD7DMD62E9p+kDsX95Gdtvxe9YV6EapBgwFjEUMBIG
A1UEAwwLRWFzeS1SU0EgQ0GCCQC/JaYDQ+N9YzATBgNVHSUEDDAKBggrBgEFBQcD
ATALBgNVHQ8EBAMCBaAwFgYDVR0RBA8wDYILc3J2LW9wZW52cG4wDQYJKoZIhvcN
AQENBQADggIBAEf5qwXzVYQTN3HI/1sQuY9qA0pAIsQGNIfePzssuj0MN0YQMIJa
SCEy7oE1DAs2T2bpryfx9vAKzOR53nVbgfMMr/K2g0Pi4WZcSU75CByt5NIzhfMk
CQ1PKEBnOajxPW7YF98UNpAL7pjqvLHLw7ndCDYrCsvsBWlTlMpMbt+hlDDgmMXC
X43cD5O4RlG5Seh0Nx/UfG2HqGzt5ptWwS1fhMAKsqjxqRT/7FDj7Z4l8UIg4Lwt
4WhXJ0YW3Jxk8g+XwM/gp6SdSCaxG1gVgVITsvzBFigMnFE1fD+lFiJJ1cmW1Yo2
iH9X4oRp1wc3UEcKeeDQdlv9wQxmwDmtVEOn0dZxAaBBQi9PNGhIPt7m2Qm6ErIK
kdQ/u0ancMyzwqm/8L+QZyBebUMxJzqjICVJq5ScEBc8zid8bvjpsulX2YHl/IkT
m7pLMILZ9vObdo3Ld9jFccQnM3M2Zqa1vRjUJeUkFaV/SXS+t6uiFKWty3vBLBg0
2K922TlInAJ+U+EW5111nhuj/JsH6C5ts2CJF7dAvDniUwNwZlSb/dinjNXTcT4t
GRR3Se/HpHcMvU811kSDXz5zqXGhzovUblkmvvtHKVA2aShAqe2nWwURGSFhiYRR
4QlRf1ouc4Qtd8M3B23rgb4NAxvNOq047yY25xVWqoP2NkIdyEE9RSAa
-----END CERTIFICATE-----
